; Function Attrs: nounwind uwtable
define hidden i32 @lsarpc_dissect_struct_lsa_TranslatedSid(ptr noundef %0, i32 noundef %1, ptr noundef %2, ptr noundef %3, ptr noundef %4, ptr noundef %5, i32 noundef %6, i32 %7) local_unnamed_addr #0 {
  %9 = alloca i32, align 4
  %10 = getelementptr inbounds nuw i8, ptr %4, i64 28
  %11 = load i32, ptr %10, align 4
  %.not = icmp ne i32 %11, 0
  %12 = and i32 %1, 3
  %.not38 = icmp eq i32 %12, 0
  %or.cond = or i1 %.not38, %.not
  %13 = and i32 %1, -4
  %14 = add i32 %13, 4
  %.0 = select i1 %or.cond, i32 %1, i32 %14
  %.not39 = icmp eq ptr %3, null
  br i1 %.not39, label %19, label %15

15:                                               ; preds = %8
  %16 = tail call ptr @proto_tree_add_item(ptr noundef nonnull %3, i32 noundef %6, ptr noundef %0, i32 noundef %.0, i32 noundef -1, i32 noundef 0) #5
  %17 = load i32, ptr @ett_lsarpc_lsa_TranslatedSid, align 4
  %18 = tail call ptr @proto_item_add_subtree(ptr noundef %16, i32 noundef %17) #5
  br label %19

19:                                               ; preds = %15, %8
  %.036 = phi ptr [ %16, %15 ], [ null, %8 ]
  %.035 = phi ptr [ %18, %15 ], [ null, %8 ]
  %20 = load i32, ptr @hf_lsarpc_lsa_TranslatedSid_sid_type, align 4
  call void @llvm.lifetime.start.p0(i64 4, ptr nonnull %9)
  store i32 0, ptr %9, align 4
  %21 = call i32 @dissect_ndr_uint1632(ptr noundef %0, i32 noundef %.0, ptr noundef %2, ptr noundef %.035, ptr noundef nonnull %4, ptr noundef %5, i32 noundef %20, ptr noundef nonnull %9) #5
  call void @llvm.lifetime.end.p0(i64 4, ptr nonnull %9)
  %22 = load i32, ptr @hf_lsarpc_lsa_TranslatedSid_rid, align 4
  %23 = call i32 @PIDL_dissect_uint32(ptr noundef %0, i32 noundef %21, ptr noundef %2, ptr noundef %.035, ptr noundef nonnull %4, ptr noundef %5, i32 noundef %22, i32 noundef 0) #5
  %24 = load i32, ptr @hf_lsarpc_lsa_TranslatedSid_sid_index, align 4
  %25 = call i32 @PIDL_dissect_uint32(ptr noundef %0, i32 noundef %23, ptr noundef %2, ptr noundef %.035, ptr noundef nonnull %4, ptr noundef %5, i32 noundef %24, i32 noundef 0) #5
  %26 = sub i32 %25, %.0
  call void @proto_item_set_len(ptr noundef %.036, i32 noundef %26) #5
  %27 = getelementptr inbounds nuw i8, ptr %4, i64 72
  %28 = load ptr, ptr %27, align 8
  %29 = getelementptr inbounds nuw i8, ptr %28, i64 96
  %30 = load i32, ptr %29, align 8
  %31 = and i32 %30, 1
  %.not40 = icmp eq i32 %31, 0
  br i1 %.not40, label %38, label %32

32:                                               ; preds = %19
  %33 = load i32, ptr %10, align 4
  %.not41 = icmp ne i32 %33, 0
  %34 = and i32 %25, 3
  %.not42 = icmp eq i32 %34, 0
  %or.cond43 = or i1 %.not42, %.not41
  br i1 %or.cond43, label %38, label %35

35:                                               ; preds = %32
  %36 = and i32 %25, -4
  %37 = add i32 %36, 4
  br label %38

38:                                               ; preds = %32, %35, %19
  %.1 = phi i32 [ %25, %32 ], [ %37, %35 ], [ %25, %19 ]
  ret i32 %.1
}